target datalayout = "e-m:e-p270:32:32-p271:32:32-p272:64:64-i64:64-i128:128-f80:128-n8:16:32:64-S128"
target triple = "x86_64-pc-linux-gnu"

%struct.aiMaterial = type { ptr, i32, i32 }

; Function Attrs: mustprogress uwtable
define void @_ZN10aiMaterialC2Ev(ptr noundef nonnull align 8 dereferenceable(16) %0) unnamed_addr #3 align 2 {
  %2 = alloca ptr, align 8
  store ptr %0, ptr %2, align 8
  %3 = load ptr, ptr %2, align 8
  %4 = getelementptr inbounds nuw %struct.aiMaterial, ptr %3, i32 0, i32 0
  store ptr null, ptr %4, align 8
  %5 = getelementptr inbounds nuw %struct.aiMaterial, ptr %3, i32 0, i32 1
  store i32 0, ptr %5, align 8
  %6 = getelementptr inbounds nuw %struct.aiMaterial, ptr %3, i32 0, i32 2
  store i32 5, ptr %6, align 4
  %7 = call noalias noundef nonnull ptr @_Znam(i64 noundef 40) #20
  %8 = getelementptr inbounds nuw %struct.aiMaterial, ptr %3, i32 0, i32 0
  store ptr %7, ptr %8, align 8
  ret void
}