; Function Attrs: mustprogress uwtable
define void @_ZN10aiMaterialC2Ev(ptr noundef nonnull writeonly align 8 captures(none) dereferenceable(16) initializes((0, 16)) %0) unnamed_addr #3 align 2 {
  store ptr null, ptr %0, align 8
  %2 = getelementptr inbounds nuw i8, ptr %0, i64 8
  store i32 0, ptr %2, align 8
  %3 = getelementptr inbounds nuw i8, ptr %0, i64 12
  store i32 5, ptr %3, align 4
  %4 = tail call noalias noundef nonnull dereferenceable(40) ptr @_Znam(i64 noundef 40) #27
  store ptr %4, ptr %0, align 8
  ret void
}